target datalayout = "e-m:e-p270:32:32-p271:32:32-p272:64:64-i64:64-i128:128-f80:128-n8:16:32:64-S128"
target triple = "x86_64-pc-linux-gnu"

%struct.JNINativeInterface_ = type { ptr, ptr, ptr, ptr, ptr, ptr, ptr, ptr, ptr, ptr, ptr, ptr, ptr, ptr, ptr, ptr, ptr, ptr, ptr, ptr, ptr, ptr, ptr, ptr, ptr, ptr, ptr, ptr, ptr, ptr, ptr, ptr, ptr, ptr, ptr, ptr, ptr, ptr, ptr, ptr, ptr, ptr, ptr, ptr, ptr, ptr, ptr, ptr, ptr, ptr, ptr, ptr, ptr, ptr, ptr, ptr, ptr, ptr, ptr, ptr, ptr, ptr, ptr, ptr, ptr, ptr, ptr, ptr, ptr, ptr, ptr, ptr, ptr, ptr, ptr, ptr, ptr, ptr, ptr, ptr, ptr, ptr, ptr, ptr, ptr, ptr, ptr, ptr, ptr, ptr, ptr, ptr, ptr, ptr, ptr, ptr, ptr, ptr, ptr, ptr, ptr, ptr, ptr, ptr, ptr, ptr, ptr, ptr, ptr, ptr, ptr, ptr, ptr, ptr, ptr, ptr, ptr, ptr, ptr, ptr, ptr, ptr, ptr, ptr, ptr, ptr, ptr, ptr, ptr, ptr, ptr, ptr, ptr, ptr, ptr, ptr, ptr, ptr, ptr, ptr, ptr, ptr, ptr, ptr, ptr, ptr, ptr, ptr, ptr, ptr, ptr, ptr, ptr, ptr, ptr, ptr, ptr, ptr, ptr, ptr, ptr, ptr, ptr, ptr, ptr, ptr, ptr, ptr, ptr, ptr, ptr, ptr, ptr, ptr, ptr, ptr, ptr, ptr, ptr, ptr, ptr, ptr, ptr, ptr, ptr, ptr, ptr, ptr, ptr, ptr, ptr, ptr, ptr, ptr, ptr, ptr, ptr, ptr, ptr, ptr, ptr, ptr, ptr, ptr, ptr, ptr, ptr, ptr, ptr, ptr, ptr, ptr, ptr, ptr, ptr, ptr, ptr, ptr, ptr, ptr, ptr, ptr, ptr, ptr, ptr, ptr, ptr, ptr, ptr, ptr, ptr, ptr, ptr, ptr, ptr }
%struct.CK_VERSION = type { i8, i8 }

@.str.9 = private unnamed_addr constant [6 x i8] c"major\00", align 1
@.str.10 = private unnamed_addr constant [2 x i8] c"B\00", align 1
@.str.11 = private unnamed_addr constant [6 x i8] c"minor\00", align 1

; Function Attrs: nounwind uwtable
define hidden ptr @jVersionToCKVersionPtr(ptr noundef %0, ptr noundef %1) #0 {
  %3 = alloca ptr, align 8
  %4 = alloca ptr, align 8
  %5 = alloca ptr, align 8
  %6 = alloca ptr, align 8
  %7 = alloca ptr, align 8
  %8 = alloca ptr, align 8
  %9 = alloca i8, align 1
  %10 = alloca i8, align 1
  store ptr %0, ptr %4, align 8
  store ptr %1, ptr %5, align 8
  %11 = load ptr, ptr %5, align 8
  %12 = icmp eq ptr %11, null
  br i1 %12, label %13, label %14

13:                                               ; preds = %2
  store ptr null, ptr %3, align 8
  br label %77

14:                                               ; preds = %2
  %15 = load ptr, ptr %4, align 8
  %16 = load ptr, ptr %15, align 8
  %17 = getelementptr inbounds %struct.JNINativeInterface_, ptr %16, i32 0, i32 31
  %18 = load ptr, ptr %17, align 8
  %19 = load ptr, ptr %4, align 8
  %20 = load ptr, ptr %5, align 8
  %21 = call ptr %18(ptr noundef %19, ptr noundef %20)
  store ptr %21, ptr %7, align 8
  %22 = load ptr, ptr %7, align 8
  %23 = icmp eq ptr %22, null
  br i1 %23, label %24, label %25

24:                                               ; preds = %14
  store ptr null, ptr %3, align 8
  br label %77

25:                                               ; preds = %14
  %26 = load ptr, ptr %4, align 8
  %27 = load ptr, ptr %26, align 8
  %28 = getelementptr inbounds %struct.JNINativeInterface_, ptr %27, i32 0, i32 94
  %29 = load ptr, ptr %28, align 8
  %30 = load ptr, ptr %4, align 8
  %31 = load ptr, ptr %7, align 8
  %32 = call ptr %29(ptr noundef %30, ptr noundef %31, ptr noundef @.str.9, ptr noundef @.str.10)
  store ptr %32, ptr %8, align 8
  %33 = load ptr, ptr %8, align 8
  %34 = icmp eq ptr %33, null
  br i1 %34, label %35, label %36

35:                                               ; preds = %25
  store ptr null, ptr %3, align 8
  br label %77

36:                                               ; preds = %25
  %37 = load ptr, ptr %4, align 8
  %38 = load ptr, ptr %37, align 8
  %39 = getelementptr inbounds %struct.JNINativeInterface_, ptr %38, i32 0, i32 97
  %40 = load ptr, ptr %39, align 8
  %41 = load ptr, ptr %4, align 8
  %42 = load ptr, ptr %5, align 8
  %43 = load ptr, ptr %8, align 8
  %44 = call signext i8 %40(ptr noundef %41, ptr noundef %42, ptr noundef %43)
  store i8 %44, ptr %9, align 1
  %45 = load ptr, ptr %4, align 8
  %46 = load ptr, ptr %45, align 8
  %47 = getelementptr inbounds %struct.JNINativeInterface_, ptr %46, i32 0, i32 94
  %48 = load ptr, ptr %47, align 8
  %49 = load ptr, ptr %4, align 8
  %50 = load ptr, ptr %7, align 8
  %51 = call ptr %48(ptr noundef %49, ptr noundef %50, ptr noundef @.str.11, ptr noundef @.str.10)
  store ptr %51, ptr %8, align 8
  %52 = load ptr, ptr %8, align 8
  %53 = icmp eq ptr %52, null
  br i1 %53, label %54, label %55

54:                                               ; preds = %36
  store ptr null, ptr %3, align 8
  br label %77

55:                                               ; preds = %36
  %56 = load ptr, ptr %4, align 8
  %57 = load ptr, ptr %56, align 8
  %58 = getelementptr inbounds %struct.JNINativeInterface_, ptr %57, i32 0, i32 97
  %59 = load ptr, ptr %58, align 8
  %60 = load ptr, ptr %4, align 8
  %61 = load ptr, ptr %5, align 8
  %62 = load ptr, ptr %8, align 8
  %63 = call signext i8 %59(ptr noundef %60, ptr noundef %61, ptr noundef %62)
  store i8 %63, ptr %10, align 1
  %64 = call noalias ptr @calloc(i64 noundef 1, i64 noundef 2) #6
  store ptr %64, ptr %6, align 8
  %65 = load ptr, ptr %6, align 8
  %66 = icmp eq ptr %65, null
  br i1 %66, label %67, label %69

67:                                               ; preds = %55
  %68 = load ptr, ptr %4, align 8
  call void @p11ThrowOutOfMemoryError(ptr noundef %68, ptr noundef null)
  store ptr null, ptr %3, align 8
  br label %77

69:                                               ; preds = %55
  %70 = load i8, ptr %9, align 1
  %71 = load ptr, ptr %6, align 8
  %72 = getelementptr inbounds %struct.CK_VERSION, ptr %71, i32 0, i32 0
  store i8 %70, ptr %72, align 1
  %73 = load i8, ptr %10, align 1
  %74 = load ptr, ptr %6, align 8
  %75 = getelementptr inbounds %struct.CK_VERSION, ptr %74, i32 0, i32 1
  store i8 %73, ptr %75, align 1
  %76 = load ptr, ptr %6, align 8
  store ptr %76, ptr %3, align 8
  br label %77

77:                                               ; preds = %69, %67, %54, %35, %24, %13
  %78 = load ptr, ptr %3, align 8
  ret ptr %78
}