; Function Attrs: nounwind uwtable
define hidden noundef ptr @jVersionToCKVersionPtr(ptr noundef %0, ptr noundef %1) local_unnamed_addr #0 {
  %3 = icmp eq ptr %1, null
  br i1 %3, label %36, label %4

4:                                                ; preds = %2
  %5 = load ptr, ptr %0, align 8
  %6 = getelementptr inbounds i8, ptr %5, i64 248
  %7 = load ptr, ptr %6, align 8
  %8 = tail call ptr %7(ptr noundef nonnull %0, ptr noundef nonnull %1) #8
  %9 = icmp eq ptr %8, null
  br i1 %9, label %36, label %10

10:                                               ; preds = %4
  %11 = load ptr, ptr %0, align 8
  %12 = getelementptr inbounds i8, ptr %11, i64 752
  %13 = load ptr, ptr %12, align 8
  %14 = tail call ptr %13(ptr noundef nonnull %0, ptr noundef nonnull %8, ptr noundef nonnull @.str.9, ptr noundef nonnull @.str.10) #8
  %15 = icmp eq ptr %14, null
  br i1 %15, label %36, label %16

16:                                               ; preds = %10
  %17 = load ptr, ptr %0, align 8
  %18 = getelementptr inbounds i8, ptr %17, i64 776
  %19 = load ptr, ptr %18, align 8
  %20 = tail call signext i8 %19(ptr noundef nonnull %0, ptr noundef nonnull %1, ptr noundef nonnull %14) #8
  %21 = load ptr, ptr %0, align 8
  %22 = getelementptr inbounds i8, ptr %21, i64 752
  %23 = load ptr, ptr %22, align 8
  %24 = tail call ptr %23(ptr noundef nonnull %0, ptr noundef nonnull %8, ptr noundef nonnull @.str.11, ptr noundef nonnull @.str.10) #8
  %25 = icmp eq ptr %24, null
  br i1 %25, label %36, label %26

26:                                               ; preds = %16
  %27 = load ptr, ptr %0, align 8
  %28 = getelementptr inbounds i8, ptr %27, i64 776
  %29 = load ptr, ptr %28, align 8
  %30 = tail call signext i8 %29(ptr noundef nonnull %0, ptr noundef nonnull %1, ptr noundef nonnull %24) #8
  %31 = tail call noalias dereferenceable_or_null(2) ptr @calloc(i64 noundef 1, i64 noundef 2) #9
  %32 = icmp eq ptr %31, null
  br i1 %32, label %33, label %34

33:                                               ; preds = %26
  tail call void @p11ThrowOutOfMemoryError(ptr noundef nonnull %0, ptr noundef null) #8
  br label %36

34:                                               ; preds = %26
  store i8 %20, ptr %31, align 1
  %35 = getelementptr inbounds i8, ptr %31, i64 1
  store i8 %30, ptr %35, align 1
  br label %36

36:                                               ; preds = %16, %10, %4, %2, %34, %33
  %.0 = phi ptr [ null, %33 ], [ %31, %34 ], [ null, %2 ], [ null, %4 ], [ null, %10 ], [ null, %16 ]
  ret ptr %.0
}